; Function Attrs: mustprogress nofree nounwind willreturn memory(write, argmem: readwrite) uwtable
define void @_ZNK3g2o18RobustKernelWelsch9robustifyEdRN5Eigen6MatrixIdLi3ELi1ELi0ELi3ELi1EEE(ptr noundef nonnull readonly align 8 captures(none) dereferenceable(16) %0, double noundef %1, ptr noundef nonnull writeonly align 8 captures(none) dereferenceable(24) initializes((0, 24)) %2) unnamed_addr #6 align 2 personality ptr @__gxx_personality_v0 {
  %4 = getelementptr inbounds nuw i8, ptr %0, i64 8
  %5 = load double, ptr %4, align 8, !tbaa !21
  %6 = fmul double %5, %5
  %7 = fneg double %1
  %8 = fdiv double %7, %6
  %9 = tail call double @exp(double noundef %8) #21, !tbaa !15
  %10 = fsub double 1.000000e+00, %9
  %11 = fmul double %6, %10
  store double %11, ptr %2, align 8, !tbaa !24
  %12 = getelementptr inbounds nuw i8, ptr %2, i64 8
  store double %9, ptr %12, align 8, !tbaa !24
  %13 = fneg double %9
  %14 = fdiv double %13, %6
  %15 = getelementptr inbounds nuw i8, ptr %2, i64 16
  store double %14, ptr %15, align 8, !tbaa !24
  ret void
}